Certificate:
    Data:
        Version: 3 (0x2)
        Serial Number: 7608672 (0x741960)
    Signature Algorithm: sha256WithRSAEncryption
        Issuer: C=FR, O=IMT-Atlantique, CN=Root Teaching CA
        Validity
            Not Before: Oct 15 22:28:21 2017 GMT
            Not After : Oct 13 22:28:21 2027 GMT
        Subject: C=FR, O=IMT-Atlantique, CN=Root Teaching CA
        Subject Public Key Info:
            Public Key Algorithm: rsaEncryption
                Public-Key: (4096 bit)
                Modulus:
                    00:c0:39:de:a8:db:4a:65:19:f1:b6:53:1f:9e:24:
                    e0:b4:52:03:5f:01:8d:d2:39:3c:c6:8d:68:66:c1:
                    3b:77:40:80:46:76:e9:e3:ae:47:da:62:a1:1b:5c:
                    1e:34:0a:a0:b7:bf:95:d3:e2:aa:e9:c5:1a:b6:67:
                    c0:c9:61:eb:c5:a8:77:50:55:06:c9:9c:5b:5b:f0:
                    e9:60:fe:28:af:5d:db:00:5f:70:e0:86:14:ee:1c:
                    28:91:48:62:8c:46:cc:c1:08:38:14:7c:76:b2:ce:
                    c5:78:73:85:33:c4:48:f9:16:0e:a9:93:2d:a3:17:
                    eb:27:12:7c:3d:ea:04:66:3d:3e:55:8e:1e:d0:2b:
                    29:b2:d2:81:1d:be:a9:66:f5:2e:bb:22:04:ea:99:
                    d2:e5:32:69:15:b5:4a:77:d0:52:54:9b:3e:57:6e:
                    3f:ac:41:59:2f:c2:5a:77:7d:d6:bf:d5:50:c8:ca:
                    c4:8b:68:a7:02:93:ef:d1:0e:82:5f:b8:7e:97:bc:
                    59:3a:37:12:44:4d:7e:56:2b:11:65:05:13:f1:60:
                    12:ae:2e:e5:6c:46:41:da:78:6e:bb:dc:a3:5c:9a:
                    ec:f8:14:8e:bd:19:80:c2:26:07:4b:b5:b8:c9:25:
                    70:71:b5:a6:bd:24:e7:7f:d7:cc:ed:fa:78:70:24:
                    80:24:70:27:d6:e6:f2:35:ad:a3:a1:ba:64:dc:f0:
                    8c:99:e2:d3:4f:a1:ce:b9:4d:8b:2f:56:cf:d7:7c:
                    e1:4a:58:d3:b6:37:9f:b1:fe:a5:01:1f:67:22:c2:
                    ca:49:6c:a2:3e:77:92:1b:ba:46:0e:3b:c3:52:18:
                    36:8a:d4:5f:39:09:c6:ed:1e:b2:72:e9:f2:95:cd:
                    59:de:12:98:40:18:c8:02:99:fc:22:60:b2:f3:e4:
                    89:d6:52:fe:60:e5:fa:a8:fe:9b:8e:f1:41:ec:e3:
                    c4:2a:09:4b:e7:91:da:5e:c8:ab:60:ac:f0:97:44:
                    19:7a:9b:24:2b:5f:39:db:d6:ad:f3:c3:06:29:98:
                    c2:36:f2:a6:6a:bf:19:71:73:c2:39:23:c8:95:49:
                    62:9f:d5:2e:fd:4f:d6:3a:ac:b1:9d:95:e8:1e:77:
                    cd:bd:d0:6e:0b:c8:f5:54:dc:36:e2:16:40:05:48:
                    7c:0f:be:b5:02:c8:dd:95:fa:14:aa:ea:2d:84:ef:
                    2d:5c:cb:a8:a3:c0:83:8b:85:ce:ab:d4:e9:79:68:
                    20:e7:68:6c:63:5e:a2:c0:d9:dd:5f:85:26:82:2b:
                    7b:db:02:6c:24:6d:7d:f5:e9:2f:04:16:9b:0f:c3:
                    e2:e2:76:3f:a1:30:7b:42:d4:56:26:86:92:04:a4:
                    9f:65:f3
                Exponent: 65537 (0x10001)
        X509v3 extensions:
            X509v3 Basic Constraints: critical
                CA:TRUE
            X509v3 Key Usage: critical
                Certificate Sign, CRL Sign
            X509v3 Subject Key Identifier: 
                8B:3C:5F:6D:A7:76:7F:87:78:11:DC:79:CA:09:B5:02:D1:A7:61:29
    Signature Algorithm: sha256WithRSAEncryption
         6f:87:2a:16:7f:01:6c:a6:e9:62:7c:e9:72:9c:5d:0d:ef:d1:
         2d:e8:b2:0b:5a:bd:30:2b:0b:2c:6d:7d:f2:82:41:66:2d:56:
         b9:f3:ec:62:e4:c2:a9:6d:93:dd:20:2d:e5:66:28:2e:32:f2:
         d9:5e:fa:1a:f8:38:39:2c:8d:98:ff:ce:ce:b6:ac:a9:89:a7:
         90:3a:f6:90:8f:cb:1c:9d:51:7b:03:0d:6f:fb:e3:79:69:a0:
         ea:f9:ad:79:c4:06:74:fb:9a:ab:a7:d4:4e:97:c8:cf:1d:db:
         f9:33:3b:e9:7a:a4:b5:23:b9:18:5d:75:94:d2:61:f3:f8:24:
         8c:f2:86:5b:6a:c9:e5:3e:35:b9:ed:6e:a9:81:c4:c1:96:ee:
         11:6d:26:f5:0e:de:57:f3:d0:6a:11:2d:df:85:47:f4:1f:51:
         23:79:33:7a:a9:e9:6d:2c:e0:15:fb:a2:51:db:f8:7f:12:e4:
         37:cf:1c:3d:37:e8:39:63:ce:3d:a5:e8:a9:d0:33:db:00:9c:
         f7:21:d3:eb:2a:4c:62:3c:58:50:bf:60:25:a4:32:d3:c3:a8:
         21:c3:b6:45:1d:ef:42:b3:6a:a8:50:2b:21:ad:7c:a1:4b:6d:
         d5:11:05:d0:a4:bb:c3:f4:80:c4:62:ab:87:0b:82:71:f4:60:
         f5:9d:e6:4b:1e:20:c2:7a:ca:77:a4:13:37:43:fe:5e:4f:8a:
         4d:08:6d:ff:2d:75:64:12:e9:c5:c7:c4:d1:2e:5f:67:54:3a:
         6d:1c:7d:c5:40:20:a8:73:84:b1:08:b0:9b:87:3a:a5:4b:17:
         1b:d5:77:42:70:4c:b7:92:5a:1a:a2:67:1c:4b:c4:b4:ce:25:
         1c:f1:64:7e:bc:17:71:47:81:fe:06:8c:bf:14:91:8e:43:26:
         20:15:ec:b7:cb:89:2f:45:3e:40:a8:f8:b1:27:e6:d4:e3:09:
         62:59:86:6a:0f:8c:3a:59:9e:e2:9f:13:05:8f:8b:ce:a1:08:
         6e:02:27:95:47:58:5c:7c:38:fe:e0:81:32:d3:50:f5:97:91:
         7a:66:49:06:39:07:92:94:15:81:4d:03:08:b9:47:5f:15:6f:
         66:7e:78:b4:cf:0b:ab:0d:4f:62:a0:4a:be:da:66:a4:0c:63:
         dc:5e:0d:4e:8c:ba:bb:93:63:2f:5a:ca:5c:b1:66:0c:97:65:
         c2:ff:e6:d1:fe:06:9b:b0:10:37:84:32:a9:5f:23:bf:39:f9:
         47:7c:52:06:f2:cc:8e:81:a3:95:f0:42:95:55:68:35:12:6d:
         f0:ba:98:cd:e2:f0:4a:47:eb:ae:49:c5:60:10:28:fa:55:fe:
         56:a9:fa:d1:29:c6:80:ce
-----BEGIN CERTIFICATE-----
MIIFQTCCAymgAwIBAgIDdBlgMA0GCSqGSIb3DQEBCwUAMEExCzAJBgNVBAYTAkZS
MRcwFQYDVQQKDA5JTVQtQXRsYW50aXF1ZTEZMBcGA1UEAwwQUm9vdCBUZWFjaGlu
ZyBDQTAeFw0xNzEwMTUyMjI4MjFaFw0yNzEwMTMyMjI4MjFaMEExCzAJBgNVBAYT
AkZSMRcwFQYDVQQKDA5JTVQtQXRsYW50aXF1ZTEZMBcGA1UEAwwQUm9vdCBUZWFj
aGluZyBDQTCCAiIwDQYJKoZIhvcNAQEBBQADggIPADCCAgoCggIBAMA53qjbSmUZ
8bZTH54k4LRSA18BjdI5PMaNaGbBO3dAgEZ26eOuR9pioRtcHjQKoLe/ldPiqunF
GrZnwMlh68Wod1BVBsmcW1vw6WD+KK9d2wBfcOCGFO4cKJFIYoxGzMEIOBR8drLO
xXhzhTPESPkWDqmTLaMX6ycSfD3qBGY9PlWOHtArKbLSgR2+qWb1LrsiBOqZ0uUy
aRW1SnfQUlSbPlduP6xBWS/CWnd91r/VUMjKxItopwKT79EOgl+4fpe8WTo3EkRN
flYrEWUFE/FgEq4u5WxGQdp4brvco1ya7PgUjr0ZgMImB0u1uMklcHG1pr0k53/X
zO36eHAkgCRwJ9bm8jWto6G6ZNzwjJni00+hzrlNiy9Wz9d84UpY07Y3n7H+pQEf
ZyLCyklsoj53khu6Rg47w1IYNorUXzkJxu0esnLp8pXNWd4SmEAYyAKZ/CJgsvPk
idZS/mDl+qj+m47xQezjxCoJS+eR2l7Iq2Cs8JdEGXqbJCtfOdvWrfPDBimYwjby
pmq/GXFzwjkjyJVJYp/VLv1P1jqssZ2V6B53zb3QbgvI9VTcNuIWQAVIfA++tQLI
3ZX6FKrqLYTvLVzLqKPAg4uFzqvU6XloIOdobGNeosDZ3V+FJoIre9sCbCRtffXp
LwQWmw/D4uJ2P6Ewe0LUViaGkgSkn2XzAgMBAAGjQjBAMA8GA1UdEwEB/wQFMAMB
Af8wDgYDVR0PAQH/BAQDAgEGMB0GA1UdDgQWBBSLPF9tp3Z/h3gR3HnKCbUC0adh
KTANBgkqhkiG9w0BAQsFAAOCAgEAb4cqFn8BbKbpYnzpcpxdDe/RLeiyC1q9MCsL
LG198oJBZi1WufPsYuTCqW2T3SAt5WYoLjLy2V76Gvg4OSyNmP/OzrasqYmnkDr2
kI/LHJ1RewMNb/vjeWmg6vmtecQGdPuaq6fUTpfIzx3b+TM76XqktSO5GF11lNJh
8/gkjPKGW2rJ5T41ue1uqYHEwZbuEW0m9Q7eV/PQahEt34VH9B9RI3kzeqnpbSzg
FfuiUdv4fxLkN88cPTfoOWPOPaXoqdAz2wCc9yHT6ypMYjxYUL9gJaQy08OoIcO2
RR3vQrNqqFArIa18oUtt1REF0KS7w/SAxGKrhwuCcfRg9Z3mSx4gwnrKd6QTN0P+
Xk+KTQht/y11ZBLpxcfE0S5fZ1Q6bRx9xUAgqHOEsQiwm4c6pUsXG9V3QnBMt5Ja
GqJnHEvEtM4lHPFkfrwXcUeB/gaMvxSRjkMmIBXst8uJL0U+QKj4sSfm1OMJYlmG
ag+MOlme4p8TBY+LzqEIbgInlUdYXHw4/uCBMtNQ9ZeRemZJBjkHkpQVgU0DCLlH
XxVvZn54tM8Lqw1PYqBKvtpmpAxj3F4NToy6u5NjL1rKXLFmDJdlwv/m0f4Gm7AQ
N4QyqV8jvzn5R3xSBvLMjoGjlfBClVVoNRJt8LqYzeLwSkfrrknFYBAo+lX+Vqn6
0SnGgM4=
-----END CERTIFICATE-----
